target datalayout = "e-m:e-p270:32:32-p271:32:32-p272:64:64-i64:64-i128:128-f80:128-n8:16:32:64-S128"
target triple = "x86_64-pc-linux-gnu"

%"struct.osgeo::proj::ExtentAndRes" = type { i8, double, double, double, double, double, double, double, double }

; Function Attrs: mustprogress nounwind uwtable
define hidden void @_ZN5osgeo4proj12ExtentAndRes13computeInvResEv(ptr noundef nonnull align 8 dereferenceable(72) %0) #0 align 2 {
  %2 = alloca ptr, align 8
  store ptr %0, ptr %2, align 8, !tbaa !3
  %3 = load ptr, ptr %2, align 8
  %4 = getelementptr inbounds nuw %"struct.osgeo::proj::ExtentAndRes", ptr %3, i32 0, i32 5
  %5 = load double, ptr %4, align 8, !tbaa !8
  %6 = fdiv double 1.000000e+00, %5
  %7 = getelementptr inbounds nuw %"struct.osgeo::proj::ExtentAndRes", ptr %3, i32 0, i32 7
  store double %6, ptr %7, align 8, !tbaa !12
  %8 = getelementptr inbounds nuw %"struct.osgeo::proj::ExtentAndRes", ptr %3, i32 0, i32 6
  %9 = load double, ptr %8, align 8, !tbaa !13
  %10 = fdiv double 1.000000e+00, %9
  %11 = getelementptr inbounds nuw %"struct.osgeo::proj::ExtentAndRes", ptr %3, i32 0, i32 8
  store double %10, ptr %11, align 8, !tbaa !14
  ret void
}