; Function Attrs: mustprogress nofree norecurse nosync nounwind willreturn memory(argmem: readwrite) uwtable
define hidden void @_ZN5osgeo4proj12ExtentAndRes13computeInvResEv(ptr noundef nonnull align 8 captures(none) dereferenceable(72) initializes((56, 72)) %0) local_unnamed_addr #0 align 2 {
  %2 = getelementptr inbounds nuw i8, ptr %0, i64 40
  %3 = load double, ptr %2, align 8, !tbaa !3
  %4 = fdiv double 1.000000e+00, %3
  %5 = getelementptr inbounds nuw i8, ptr %0, i64 56
  store double %4, ptr %5, align 8, !tbaa !9
  %6 = getelementptr inbounds nuw i8, ptr %0, i64 48
  %7 = load double, ptr %6, align 8, !tbaa !10
  %8 = fdiv double 1.000000e+00, %7
  %9 = getelementptr inbounds nuw i8, ptr %0, i64 64
  store double %8, ptr %9, align 8, !tbaa !11
  ret void
}